; Function Attrs: null_pointer_is_valid sspstrong uwtable
define internal noundef zeroext i1 @dissect_nano_heur_udp(ptr noundef %0, ptr noundef %1, ptr noundef %2, ptr readnone captures(none) %3) #0 {
  %5 = tail call fastcc zeroext i1 @test_nano(ptr noundef %0)
  br i1 %5, label %6, label %10

6:                                                ; preds = %4
  %7 = tail call ptr @find_or_create_conversation(ptr noundef %1)
  %8 = load ptr, ptr @nano_handle, align 8
  tail call void @conversation_set_dissector(ptr noundef %7, ptr noundef %8)
  %9 = tail call i32 @dissect_nano(ptr noundef %0, ptr noundef %1, ptr noundef %2, ptr poison)
  br label %10

10:                                               ; preds = %4, %6
  ret i1 %5
}